target datalayout = "e-m:e-p270:32:32-p271:32:32-p272:64:64-i64:64-i128:128-f80:128-n8:16:32:64-S128"
target triple = "x86_64-pc-linux-gnu"

%struct.PyVarObject = type { %struct._object, i64 }
%struct._object = type { i64, ptr }

@.str.4 = private unnamed_addr constant [64 x i8] c"nanobind::detail::obj_vectorcall(): PyGILState_Check() failure.\00", align 1

; Function Attrs: inlinehint mustprogress uwtable
define internal void @_ZL10_Py_DECREFP7_object(ptr noundef %0) #13 {
  %2 = alloca ptr, align 8
  store ptr %0, ptr %2, align 8
  %3 = load ptr, ptr %2, align 8
  %4 = getelementptr inbounds nuw %struct._object, ptr %3, i32 0, i32 0
  %5 = load i64, ptr %4, align 8
  %6 = add nsw i64 %5, -1
  store i64 %6, ptr %4, align 8
  %7 = icmp ne i64 %6, 0
  br i1 %7, label %8, label %9

8:                                                ; preds = %1
  br label %11

9:                                                ; preds = %1
  %10 = load ptr, ptr %2, align 8
  call void @_Py_Dealloc(ptr noundef %10)
  br label %11

11:                                               ; preds = %9, %8
  ret void
}

; Function Attrs: inlinehint mustprogress uwtable
define internal void @_ZL11_Py_XDECREFP7_object(ptr noundef %0) #13 {
  %2 = alloca ptr, align 8
  store ptr %0, ptr %2, align 8
  %3 = load ptr, ptr %2, align 8
  %4 = icmp ne ptr %3, null
  br i1 %4, label %5, label %7

5:                                                ; preds = %1
  %6 = load ptr, ptr %2, align 8
  call void @_ZL10_Py_DECREFP7_object(ptr noundef %6)
  br label %7

7:                                                ; preds = %5, %1
  ret void
}

; Function Attrs: inlinehint mustprogress nounwind uwtable
define internal noundef i64 @_ZL18PyVectorcall_NARGSm(i64 noundef %0) #9 {
  %2 = alloca i64, align 8
  store i64 %0, ptr %2, align 8
  %3 = load i64, ptr %2, align 8
  %4 = and i64 %3, 9223372036854775807
  ret i64 %4
}

; Function Attrs: mustprogress uwtable
define noundef ptr @_ZN8nanobind6detail14obj_vectorcallEP7_objectPKS2_mS2_b(ptr noundef %0, ptr noundef %1, i64 noundef %2, ptr noundef %3, i1 noundef zeroext %4) #12 {
  %6 = alloca ptr, align 8
  %7 = alloca ptr, align 8
  %8 = alloca ptr, align 8
  %9 = alloca i64, align 8
  %10 = alloca ptr, align 8
  %11 = alloca i8, align 1
  %12 = alloca ptr, align 8
  %13 = alloca i8, align 1
  %14 = alloca i8, align 1
  %15 = alloca i64, align 8
  %16 = alloca i64, align 8
  %17 = alloca i32, align 4
  %18 = alloca i64, align 8
  store ptr %0, ptr %7, align 8
  store ptr %1, ptr %8, align 8
  store i64 %2, ptr %9, align 8
  store ptr %3, ptr %10, align 8
  %19 = zext i1 %4 to i8
  store i8 %19, ptr %11, align 1
  call void @llvm.lifetime.start.p0(i64 8, ptr %12) #20
  store ptr null, ptr %12, align 8
  call void @llvm.lifetime.start.p0(i64 1, ptr %13) #20
  store i8 0, ptr %13, align 1
  call void @llvm.lifetime.start.p0(i64 1, ptr %14) #20
  store i8 0, ptr %14, align 1
  call void @llvm.lifetime.start.p0(i64 8, ptr %15) #20
  %20 = load i64, ptr %9, align 8
  %21 = call noundef i64 @_ZL18PyVectorcall_NARGSm(i64 noundef %20)
  %22 = load ptr, ptr %10, align 8
  %23 = icmp ne ptr %22, null
  br i1 %23, label %24, label %28

24:                                               ; preds = %5
  %25 = load ptr, ptr %10, align 8
  %26 = getelementptr inbounds nuw %struct.PyVarObject, ptr %25, i32 0, i32 1
  %27 = load i64, ptr %26, align 8
  br label %29

28:                                               ; preds = %5
  br label %29

29:                                               ; preds = %28, %24
  %30 = phi i64 [ %27, %24 ], [ 0, %28 ]
  %31 = add nsw i64 %21, %30
  store i64 %31, ptr %15, align 8
  %32 = call i32 @PyGILState_Check()
  %33 = icmp ne i32 %32, 0
  br i1 %33, label %35, label %34

34:                                               ; preds = %29
  store i8 1, ptr %13, align 1
  br label %66

35:                                               ; preds = %29
  call void @llvm.lifetime.start.p0(i64 8, ptr %16) #20
  store i64 0, ptr %16, align 8
  br label %36

36:                                               ; preds = %49, %35
  %37 = load i64, ptr %16, align 8
  %38 = load i64, ptr %15, align 8
  %39 = icmp ult i64 %37, %38
  br i1 %39, label %41, label %40

40:                                               ; preds = %36
  store i32 3, ptr %17, align 4
  br label %52

41:                                               ; preds = %36
  %42 = load ptr, ptr %8, align 8
  %43 = load i64, ptr %16, align 8
  %44 = getelementptr inbounds nuw ptr, ptr %42, i64 %43
  %45 = load ptr, ptr %44, align 8
  %46 = icmp ne ptr %45, null
  br i1 %46, label %48, label %47

47:                                               ; preds = %41
  store i8 1, ptr %14, align 1
  store i32 2, ptr %17, align 4
  br label %52

48:                                               ; preds = %41
  br label %49

49:                                               ; preds = %48
  %50 = load i64, ptr %16, align 8
  %51 = add i64 %50, 1
  store i64 %51, ptr %16, align 8
  br label %36, !llvm.loop !5

52:                                               ; preds = %47, %40
  call void @llvm.lifetime.end.p0(i64 8, ptr %16) #20
  %53 = load i32, ptr %17, align 4
  switch i32 %53, label %96 [
    i32 3, label %54
    i32 2, label %66
  ]

54:                                               ; preds = %52
  %55 = load i8, ptr %11, align 1, !range !6, !noundef !7
  %56 = trunc i8 %55 to i1
  br i1 %56, label %57, label %58

57:                                               ; preds = %54
  br label %59

58:                                               ; preds = %54
  br label %59

59:                                               ; preds = %58, %57
  %60 = phi ptr [ @PyObject_VectorcallMethod, %57 ], [ @_ZL19PyObject_VectorcallP7_objectPKS0_mS0_, %58 ]
  %61 = load ptr, ptr %7, align 8
  %62 = load ptr, ptr %8, align 8
  %63 = load i64, ptr %9, align 8
  %64 = load ptr, ptr %10, align 8
  %65 = call noundef ptr %60(ptr noundef %61, ptr noundef %62, i64 noundef %63, ptr noundef %64)
  store ptr %65, ptr %12, align 8
  br label %66

66:                                               ; preds = %59, %52, %34
  call void @llvm.lifetime.start.p0(i64 8, ptr %18) #20
  store i64 0, ptr %18, align 8
  br label %67

67:                                               ; preds = %77, %66
  %68 = load i64, ptr %18, align 8
  %69 = load i64, ptr %15, align 8
  %70 = icmp ult i64 %68, %69
  br i1 %70, label %72, label %71

71:                                               ; preds = %67
  store i32 6, ptr %17, align 4
  call void @llvm.lifetime.end.p0(i64 8, ptr %18) #20
  br label %80

72:                                               ; preds = %67
  %73 = load ptr, ptr %8, align 8
  %74 = load i64, ptr %18, align 8
  %75 = getelementptr inbounds nuw ptr, ptr %73, i64 %74
  %76 = load ptr, ptr %75, align 8
  call void @_ZL11_Py_XDECREFP7_object(ptr noundef %76)
  br label %77

77:                                               ; preds = %72
  %78 = load i64, ptr %18, align 8
  %79 = add i64 %78, 1
  store i64 %79, ptr %18, align 8
  br label %67, !llvm.loop !8

80:                                               ; preds = %71
  %81 = load ptr, ptr %10, align 8
  call void @_ZL11_Py_XDECREFP7_object(ptr noundef %81)
  %82 = load ptr, ptr %7, align 8
  call void @_ZL10_Py_DECREFP7_object(ptr noundef %82)
  %83 = load ptr, ptr %12, align 8
  %84 = icmp ne ptr %83, null
  br i1 %84, label %94, label %85

85:                                               ; preds = %80
  %86 = load i8, ptr %14, align 1, !range !6, !noundef !7
  %87 = trunc i8 %86 to i1
  br i1 %87, label %88, label %89

88:                                               ; preds = %85
  call void @_ZN8nanobind6detail16raise_cast_errorEv() #21
  unreachable

89:                                               ; preds = %85
  %90 = load i8, ptr %13, align 1, !range !6, !noundef !7
  %91 = trunc i8 %90 to i1
  br i1 %91, label %92, label %93

92:                                               ; preds = %89
  call void (ptr, ...) @_ZN8nanobind6detail5raiseEPKcz(ptr noundef @.str.4) #21
  unreachable

93:                                               ; preds = %89
  call void @_ZN8nanobind6detail18raise_python_errorEv() #21
  unreachable

94:                                               ; preds = %80
  %95 = load ptr, ptr %12, align 8
  store ptr %95, ptr %6, align 8
  store i32 1, ptr %17, align 4
  br label %96

96:                                               ; preds = %94, %52
  call void @llvm.lifetime.end.p0(i64 8, ptr %15) #20
  call void @llvm.lifetime.end.p0(i64 1, ptr %14) #20
  call void @llvm.lifetime.end.p0(i64 1, ptr %13) #20
  call void @llvm.lifetime.end.p0(i64 8, ptr %12) #20
  %97 = load ptr, ptr %6, align 8
  ret ptr %97
}