; Function Attrs: mustprogress uwtable
define noundef nonnull ptr @_ZN8nanobind6detail14obj_vectorcallEP7_objectPKS2_mS2_b(ptr noundef %0, ptr noundef %1, i64 noundef %2, ptr noundef %3, i1 noundef zeroext %4) local_unnamed_addr #15 {
  %6 = and i64 %2, 9223372036854775807
  %.not = icmp eq ptr %3, null
  br i1 %.not, label %10, label %7

7:                                                ; preds = %5
  %8 = getelementptr inbounds nuw i8, ptr %3, i64 16
  %9 = load i64, ptr %8, align 8
  br label %10

10:                                               ; preds = %5, %7
  %11 = phi i64 [ %9, %7 ], [ 0, %5 ]
  %12 = add i64 %11, %6
  %13 = tail call i32 @PyGILState_Check()
  %.not32 = icmp eq i32 %13, 0
  br i1 %.not32, label %.loopexit, label %.preheader

.preheader:                                       ; preds = %10
  %.not49 = icmp eq i64 %12, 0
  br i1 %.not49, label %._crit_edge, label %.lr.ph

14:                                               ; preds = %.lr.ph
  %15 = add nuw i64 %.02644, 1
  %exitcond.not = icmp eq i64 %15, %12
  br i1 %exitcond.not, label %._crit_edge, label %.lr.ph, !llvm.loop !7

.lr.ph:                                           ; preds = %.preheader, %14
  %.02644 = phi i64 [ %15, %14 ], [ 0, %.preheader ]
  %16 = getelementptr inbounds nuw ptr, ptr %1, i64 %.02644
  %17 = load ptr, ptr %16, align 8
  %.not33 = icmp eq ptr %17, null
  br i1 %.not33, label %.loopexit, label %14

._crit_edge:                                      ; preds = %14, %.preheader
  %PyObject_VectorcallMethod._ZL19PyObject_VectorcallP7_objectPKS0_mS0_ = select i1 %4, ptr @PyObject_VectorcallMethod, ptr @_ZL19PyObject_VectorcallP7_objectPKS0_mS0_
  %18 = tail call noundef ptr %PyObject_VectorcallMethod._ZL19PyObject_VectorcallP7_objectPKS0_mS0_(ptr noundef %0, ptr noundef %1, i64 noundef %2, ptr noundef %3), !callees !8
  br label %.loopexit

.loopexit:                                        ; preds = %.lr.ph, %10, %._crit_edge
  %.030 = phi ptr [ %18, %._crit_edge ], [ null, %10 ], [ null, %.lr.ph ]
  %.028 = phi i1 [ false, %._crit_edge ], [ false, %10 ], [ true, %.lr.ph ]
  %.not50 = icmp eq i64 %12, 0
  br i1 %.not50, label %._crit_edge48, label %.lr.ph47

._crit_edge48:                                    ; preds = %_ZL11_Py_XDECREFP7_object.exit38, %.loopexit
  br i1 %.not, label %_ZL11_Py_XDECREFP7_object.exit, label %19

19:                                               ; preds = %._crit_edge48
  %20 = load i64, ptr %3, align 8
  %21 = add nsw i64 %20, -1
  store i64 %21, ptr %3, align 8
  %.not.i.i = icmp eq i64 %21, 0
  br i1 %.not.i.i, label %22, label %_ZL11_Py_XDECREFP7_object.exit

22:                                               ; preds = %19
  tail call void @_Py_Dealloc(ptr noundef nonnull %3)
  br label %_ZL11_Py_XDECREFP7_object.exit

_ZL11_Py_XDECREFP7_object.exit:                   ; preds = %._crit_edge48, %19, %22
  %23 = load i64, ptr %0, align 8
  %24 = add nsw i64 %23, -1
  store i64 %24, ptr %0, align 8
  %.not.i35 = icmp eq i64 %24, 0
  br i1 %.not.i35, label %25, label %_ZL10_Py_DECREFP7_object.exit

25:                                               ; preds = %_ZL11_Py_XDECREFP7_object.exit
  tail call void @_Py_Dealloc(ptr noundef nonnull %0)
  br label %_ZL10_Py_DECREFP7_object.exit

_ZL10_Py_DECREFP7_object.exit:                    ; preds = %_ZL11_Py_XDECREFP7_object.exit, %25
  %.not34 = icmp eq ptr %.030, null
  br i1 %.not34, label %33, label %38

.lr.ph47:                                         ; preds = %.loopexit, %_ZL11_Py_XDECREFP7_object.exit38
  %.045 = phi i64 [ %32, %_ZL11_Py_XDECREFP7_object.exit38 ], [ 0, %.loopexit ]
  %26 = getelementptr inbounds nuw ptr, ptr %1, i64 %.045
  %27 = load ptr, ptr %26, align 8
  %.not.i36 = icmp eq ptr %27, null
  br i1 %.not.i36, label %_ZL11_Py_XDECREFP7_object.exit38, label %28

28:                                               ; preds = %.lr.ph47
  %29 = load i64, ptr %27, align 8
  %30 = add nsw i64 %29, -1
  store i64 %30, ptr %27, align 8
  %.not.i.i37 = icmp eq i64 %30, 0
  br i1 %.not.i.i37, label %31, label %_ZL11_Py_XDECREFP7_object.exit38

31:                                               ; preds = %28
  tail call void @_Py_Dealloc(ptr noundef nonnull %27)
  br label %_ZL11_Py_XDECREFP7_object.exit38

_ZL11_Py_XDECREFP7_object.exit38:                 ; preds = %.lr.ph47, %28, %31
  %32 = add nuw i64 %.045, 1
  %exitcond51.not = icmp eq i64 %32, %12
  br i1 %exitcond51.not, label %._crit_edge48, label %.lr.ph47, !llvm.loop !9

33:                                               ; preds = %_ZL10_Py_DECREFP7_object.exit
  br i1 %.028, label %34, label %35

34:                                               ; preds = %33
  tail call void @_ZN8nanobind6detail16raise_cast_errorEv() #28
  unreachable

35:                                               ; preds = %33
  br i1 %.not32, label %36, label %37

36:                                               ; preds = %35
  tail call void (ptr, ...) @_ZN8nanobind6detail5raiseEPKcz(ptr noundef nonnull @.str.4) #28
  unreachable

37:                                               ; preds = %35
  tail call void @_ZN8nanobind6detail18raise_python_errorEv() #28
  unreachable

38:                                               ; preds = %_ZL10_Py_DECREFP7_object.exit
  ret ptr %.030
}